target datalayout = "e-m:e-p270:32:32-p271:32:32-p272:64:64-i64:64-i128:128-f80:128-n8:16:32:64-S128"
target triple = "x86_64-pc-linux-gnu"

%"class.icu_77::UMutex" = type { [40 x i8], %"struct.std::atomic", ptr }
%"struct.std::atomic" = type { %"struct.std::__atomic_base" }
%"struct.std::__atomic_base" = type { ptr }
%struct.UConverterSharedData = type { i32, i32, ptr, ptr, i8, i8, ptr, i32, %struct.UConverterMBCSTable }
%struct.UConverterMBCSTable = type { i8, i8, i8, i32, ptr, ptr, ptr, ptr, ptr, ptr, [64 x i16], ptr, ptr, i32, i8, i8, i8, i16, i32, ptr, ptr, ptr, ptr }
%struct.UConverterImpl = type { i32, ptr, ptr, ptr, ptr, ptr, ptr, ptr, ptr, ptr, ptr, ptr, ptr, ptr, ptr, ptr, ptr, ptr }
%struct.UHashElement = type { i32, %union.UElement, %union.UElement }
%union.UElement = type { ptr }

@_ZL13cnvCacheMutex = internal global %"class.icu_77::UMutex" zeroinitializer, align 8
@_ZL21SHARED_DATA_HASHTABLE = internal global ptr null, align 8

; Function Attrs: mustprogress uwtable
define internal noundef signext i8 @_ZL30ucnv_deleteSharedConverterDataP20UConverterSharedData(ptr noundef %0) #0 {
  %2 = alloca i8, align 1
  %3 = alloca ptr, align 8
  %4 = alloca ptr, align 8
  store ptr %0, ptr %3, align 8, !tbaa !18
  %5 = load ptr, ptr %3, align 8, !tbaa !18
  %6 = getelementptr inbounds nuw %struct.UConverterSharedData, ptr %5, i32 0, i32 1
  %7 = load i32, ptr %6, align 4, !tbaa !21
  %8 = icmp ugt i32 %7, 0
  br i1 %8, label %9, label %10

9:                                                ; preds = %1
  store i8 0, ptr %2, align 1
  br label %36

10:                                               ; preds = %1
  %11 = load ptr, ptr %3, align 8, !tbaa !18
  %12 = getelementptr inbounds nuw %struct.UConverterSharedData, ptr %11, i32 0, i32 6
  %13 = load ptr, ptr %12, align 8, !tbaa !34
  %14 = getelementptr inbounds nuw %struct.UConverterImpl, ptr %13, i32 0, i32 2
  %15 = load ptr, ptr %14, align 8, !tbaa !35
  %16 = icmp ne ptr %15, null
  br i1 %16, label %17, label %24

17:                                               ; preds = %10
  %18 = load ptr, ptr %3, align 8, !tbaa !18
  %19 = getelementptr inbounds nuw %struct.UConverterSharedData, ptr %18, i32 0, i32 6
  %20 = load ptr, ptr %19, align 8, !tbaa !34
  %21 = getelementptr inbounds nuw %struct.UConverterImpl, ptr %20, i32 0, i32 2
  %22 = load ptr, ptr %21, align 8, !tbaa !35
  %23 = load ptr, ptr %3, align 8, !tbaa !18
  call void %22(ptr noundef %23)
  br label %24

24:                                               ; preds = %17, %10
  %25 = load ptr, ptr %3, align 8, !tbaa !18
  %26 = getelementptr inbounds nuw %struct.UConverterSharedData, ptr %25, i32 0, i32 2
  %27 = load ptr, ptr %26, align 8, !tbaa !38
  %28 = icmp ne ptr %27, null
  br i1 %28, label %29, label %34

29:                                               ; preds = %24
  call void @llvm.lifetime.start.p0(i64 8, ptr %4) #12
  %30 = load ptr, ptr %3, align 8, !tbaa !18
  %31 = getelementptr inbounds nuw %struct.UConverterSharedData, ptr %30, i32 0, i32 2
  %32 = load ptr, ptr %31, align 8, !tbaa !38
  store ptr %32, ptr %4, align 8, !tbaa !29
  %33 = load ptr, ptr %4, align 8, !tbaa !29
  call void @udata_close_77(ptr noundef %33)
  call void @llvm.lifetime.end.p0(i64 8, ptr %4) #12
  br label %34

34:                                               ; preds = %29, %24
  %35 = load ptr, ptr %3, align 8, !tbaa !18
  call void @uprv_free_77(ptr noundef %35)
  store i8 1, ptr %2, align 1
  br label %36

36:                                               ; preds = %34, %9
  %37 = load i8, ptr %2, align 1
  ret i8 %37
}

; Function Attrs: mustprogress uwtable
define i32 @ucnv_flushCache_77() #0 {
  %1 = alloca i32, align 4
  %2 = alloca ptr, align 8
  %3 = alloca i32, align 4
  %4 = alloca i32, align 4
  %5 = alloca ptr, align 8
  %6 = alloca i32, align 4
  %7 = alloca i32, align 4
  %8 = alloca i32, align 4
  call void @llvm.lifetime.start.p0(i64 8, ptr %2) #12
  store ptr null, ptr %2, align 8, !tbaa !18
  call void @llvm.lifetime.start.p0(i64 4, ptr %3) #12
  call void @llvm.lifetime.start.p0(i64 4, ptr %4) #12
  store i32 0, ptr %4, align 4, !tbaa !46
  call void @llvm.lifetime.start.p0(i64 8, ptr %5) #12
  call void @llvm.lifetime.start.p0(i64 4, ptr %6) #12
  call void @llvm.lifetime.start.p0(i64 4, ptr %7) #12
  call void @u_flushDefaultConverter_77()
  %9 = load ptr, ptr @_ZL21SHARED_DATA_HASHTABLE, align 8, !tbaa !3
  %10 = icmp eq ptr %9, null
  br i1 %10, label %11, label %12

11:                                               ; preds = %0
  store i32 0, ptr %1, align 4
  store i32 1, ptr %8, align 4
  br label %52

12:                                               ; preds = %0
  call void @umtx_lock_77(ptr noundef @_ZL13cnvCacheMutex)
  store i32 0, ptr %6, align 4, !tbaa !46
  br label %13

13:                                               ; preds = %48, %12
  store i32 0, ptr %7, align 4, !tbaa !46
  store i32 -1, ptr %3, align 4, !tbaa !46
  br label %14

14:                                               ; preds = %39, %13
  %15 = load ptr, ptr @_ZL21SHARED_DATA_HASHTABLE, align 8, !tbaa !3
  %16 = call ptr @uhash_nextElement_77(ptr noundef %15, ptr noundef %3)
  store ptr %16, ptr %5, align 8, !tbaa !79
  %17 = icmp ne ptr %16, null
  br i1 %17, label %18, label %40

18:                                               ; preds = %14
  %19 = load ptr, ptr %5, align 8, !tbaa !79
  %20 = getelementptr inbounds nuw %struct.UHashElement, ptr %19, i32 0, i32 1
  %21 = load ptr, ptr %20, align 8, !tbaa !16
  store ptr %21, ptr %2, align 8, !tbaa !18
  %22 = load ptr, ptr %2, align 8, !tbaa !18
  %23 = getelementptr inbounds nuw %struct.UConverterSharedData, ptr %22, i32 0, i32 1
  %24 = load i32, ptr %23, align 4, !tbaa !21
  %25 = icmp eq i32 %24, 0
  br i1 %25, label %26, label %36

26:                                               ; preds = %18
  %27 = load i32, ptr %4, align 4, !tbaa !46
  %28 = add nsw i32 %27, 1
  store i32 %28, ptr %4, align 4, !tbaa !46
  %29 = load ptr, ptr @_ZL21SHARED_DATA_HASHTABLE, align 8, !tbaa !3
  %30 = load ptr, ptr %5, align 8, !tbaa !79
  %31 = call ptr @uhash_removeElement_77(ptr noundef %29, ptr noundef %30)
  %32 = load ptr, ptr %2, align 8, !tbaa !18
  %33 = getelementptr inbounds nuw %struct.UConverterSharedData, ptr %32, i32 0, i32 4
  store i8 0, ptr %33, align 8, !tbaa !32
  %34 = load ptr, ptr %2, align 8, !tbaa !18
  %35 = call noundef signext i8 @_ZL30ucnv_deleteSharedConverterDataP20UConverterSharedData(ptr noundef %34)
  br label %39

36:                                               ; preds = %18
  %37 = load i32, ptr %7, align 4, !tbaa !46
  %38 = add nsw i32 %37, 1
  store i32 %38, ptr %7, align 4, !tbaa !46
  br label %39

39:                                               ; preds = %36, %26
  br label %14, !llvm.loop !81

40:                                               ; preds = %14
  br label %41

41:                                               ; preds = %40
  %42 = load i32, ptr %6, align 4, !tbaa !46
  %43 = add nsw i32 %42, 1
  store i32 %43, ptr %6, align 4, !tbaa !46
  %44 = icmp eq i32 %43, 1
  br i1 %44, label %45, label %48

45:                                               ; preds = %41
  %46 = load i32, ptr %7, align 4, !tbaa !46
  %47 = icmp sgt i32 %46, 0
  br label %48

48:                                               ; preds = %45, %41
  %49 = phi i1 [ false, %41 ], [ %47, %45 ]
  br i1 %49, label %13, label %50, !llvm.loop !82

50:                                               ; preds = %48
  call void @umtx_unlock_77(ptr noundef @_ZL13cnvCacheMutex)
  %51 = load i32, ptr %4, align 4, !tbaa !46
  store i32 %51, ptr %1, align 4
  store i32 1, ptr %8, align 4
  br label %52

52:                                               ; preds = %50, %11
  call void @llvm.lifetime.end.p0(i64 4, ptr %7) #12
  call void @llvm.lifetime.end.p0(i64 4, ptr %6) #12
  call void @llvm.lifetime.end.p0(i64 8, ptr %5) #12
  call void @llvm.lifetime.end.p0(i64 4, ptr %4) #12
  call void @llvm.lifetime.end.p0(i64 4, ptr %3) #12
  call void @llvm.lifetime.end.p0(i64 8, ptr %2) #12
  %53 = load i32, ptr %1, align 4
  ret i32 %53
}