; Function Attrs: mustprogress uwtable
define i32 @ucnv_flushCache_77() local_unnamed_addr #0 {
  %1 = alloca i32, align 4
  call void @llvm.lifetime.start.p0(i64 4, ptr nonnull %1) #11
  tail call void @u_flushDefaultConverter_77()
  %2 = load ptr, ptr @_ZL21SHARED_DATA_HASHTABLE, align 8, !tbaa !3
  %3 = icmp eq ptr %2, null
  br i1 %3, label %38, label %4

4:                                                ; preds = %0
  tail call void @umtx_lock_77(ptr noundef nonnull @_ZL13cnvCacheMutex)
  br label %5

5:                                                ; preds = %._crit_edge, %4
  %.012 = phi i32 [ 0, %4 ], [ %.2, %._crit_edge ]
  %6 = phi i1 [ true, %4 ], [ false, %._crit_edge ]
  store i32 -1, ptr %1, align 4, !tbaa !77
  %7 = load ptr, ptr @_ZL21SHARED_DATA_HASHTABLE, align 8, !tbaa !3
  %8 = call ptr @uhash_nextElement_77(ptr noundef %7, ptr noundef nonnull %1)
  %.not16 = icmp eq ptr %8, null
  br i1 %.not16, label %._crit_edge.thread, label %.lr.ph

.lr.ph:                                           ; preds = %5, %_ZL30ucnv_deleteSharedConverterDataP20UConverterSharedData.exit
  %9 = phi ptr [ %35, %_ZL30ucnv_deleteSharedConverterDataP20UConverterSharedData.exit ], [ %8, %5 ]
  %.018 = phi i32 [ %.1, %_ZL30ucnv_deleteSharedConverterDataP20UConverterSharedData.exit ], [ 0, %5 ]
  %.11317 = phi i32 [ %.2, %_ZL30ucnv_deleteSharedConverterDataP20UConverterSharedData.exit ], [ %.012, %5 ]
  %10 = getelementptr inbounds nuw i8, ptr %9, i64 8
  %11 = load ptr, ptr %10, align 8, !tbaa !19
  %12 = getelementptr inbounds nuw i8, ptr %11, i64 4
  %13 = load i32, ptr %12, align 4, !tbaa !22
  %14 = icmp eq i32 %13, 0
  br i1 %14, label %15, label %32

15:                                               ; preds = %.lr.ph
  %16 = add nsw i32 %.11317, 1
  %17 = load ptr, ptr @_ZL21SHARED_DATA_HASHTABLE, align 8, !tbaa !3
  %18 = call ptr @uhash_removeElement_77(ptr noundef %17, ptr noundef nonnull %9)
  %19 = getelementptr inbounds nuw i8, ptr %11, i64 24
  store i8 0, ptr %19, align 8, !tbaa !37
  %20 = load i32, ptr %12, align 4, !tbaa !22
  %.not.i = icmp eq i32 %20, 0
  br i1 %.not.i, label %21, label %_ZL30ucnv_deleteSharedConverterDataP20UConverterSharedData.exit

21:                                               ; preds = %15
  %22 = getelementptr inbounds nuw i8, ptr %11, i64 32
  %23 = load ptr, ptr %22, align 8, !tbaa !39
  %24 = getelementptr inbounds nuw i8, ptr %23, i64 16
  %25 = load ptr, ptr %24, align 8, !tbaa !43
  %.not10.i = icmp eq ptr %25, null
  br i1 %.not10.i, label %27, label %26

26:                                               ; preds = %21
  call void %25(ptr noundef nonnull %11)
  br label %27

27:                                               ; preds = %26, %21
  %28 = getelementptr inbounds nuw i8, ptr %11, i64 8
  %29 = load ptr, ptr %28, align 8, !tbaa !38
  %.not11.i = icmp eq ptr %29, null
  br i1 %.not11.i, label %31, label %30

30:                                               ; preds = %27
  call void @udata_close_77(ptr noundef nonnull %29)
  br label %31

31:                                               ; preds = %30, %27
  call void @uprv_free_77(ptr noundef nonnull %11)
  br label %_ZL30ucnv_deleteSharedConverterDataP20UConverterSharedData.exit

32:                                               ; preds = %.lr.ph
  %33 = add nsw i32 %.018, 1
  br label %_ZL30ucnv_deleteSharedConverterDataP20UConverterSharedData.exit

_ZL30ucnv_deleteSharedConverterDataP20UConverterSharedData.exit: ; preds = %31, %15, %32
  %.2 = phi i32 [ %.11317, %32 ], [ %16, %15 ], [ %16, %31 ]
  %.1 = phi i32 [ %33, %32 ], [ %.018, %15 ], [ %.018, %31 ]
  %34 = load ptr, ptr @_ZL21SHARED_DATA_HASHTABLE, align 8, !tbaa !3
  %35 = call ptr @uhash_nextElement_77(ptr noundef %34, ptr noundef nonnull %1)
  %.not = icmp eq ptr %35, null
  br i1 %.not, label %._crit_edge, label %.lr.ph, !llvm.loop !78

._crit_edge:                                      ; preds = %_ZL30ucnv_deleteSharedConverterDataP20UConverterSharedData.exit
  %36 = icmp sgt i32 %.1, 0
  %37 = select i1 %6, i1 %36, i1 false
  br i1 %37, label %5, label %._crit_edge.thread, !llvm.loop !79

._crit_edge.thread:                               ; preds = %5, %._crit_edge
  %.113.lcssa22 = phi i32 [ %.2, %._crit_edge ], [ %.012, %5 ]
  call void @umtx_unlock_77(ptr noundef nonnull @_ZL13cnvCacheMutex)
  br label %38

38:                                               ; preds = %0, %._crit_edge.thread
  %.011 = phi i32 [ %.113.lcssa22, %._crit_edge.thread ], [ 0, %0 ]
  call void @llvm.lifetime.end.p0(i64 4, ptr nonnull %1) #11
  ret i32 %.011
}